#include <math.h>
#include <stdio.h>
#include <stdlib.h>
#include <string.h>

void main()
{int n,i,j,flag;
 char *p;
 scanf("%d\n",&n);
 for(i=0;i<n;i++)
 {p=(char*)malloc(81*sizeof(char));
  gets(p);
  flag=1;
  if(*p!='_' && (*p<'A'||*p>'Z') && (*p<'a'|| *p>'z')) flag=0;
  for(j=1;*(p+j)!='\0';j++)
	  if( (*(p+j)!='_') && (*(p+j)<'A'|| *(p+j)>'Z') &&(*(p+j)<'a'||*(p+j)>'z') && (*(p+j)<'0'||*(p+j)>'9') ) flag=0;
  printf("%d\n",flag);
  free(p);
 }
}