; ModuleID = '58/68.c'
source_filename = "58/68.c"
target datalayout = "e-m:e-p270:32:32-p271:32:32-p272:64:64-i64:64-f80:128-n8:16:32:64-S128"
target triple = "x86_64-pc-linux-gnu"

@.str = private unnamed_addr constant [4 x i8] c"%d\0A\00", align 1

; Function Attrs: noinline nounwind uwtable
define dso_local void @main() #0 {
  %1 = alloca i32, align 4
  %2 = alloca i32, align 4
  %3 = alloca i32, align 4
  %4 = alloca i32, align 4
  %5 = alloca i8*, align 8
  %6 = call i32 (i8*, ...) @__isoc99_scanf(i8* getelementptr inbounds ([4 x i8], [4 x i8]* @.str, i64 0, i64 0), i32* %1)
  store i32 0, i32* %2, align 4
  br label %7

7:                                                ; preds = %114, %0
  %8 = load i32, i32* %2, align 4
  %9 = load i32, i32* %1, align 4
  %10 = icmp slt i32 %8, %9
  br i1 %10, label %11, label %117

11:                                               ; preds = %7
  %12 = call noalias i8* @malloc(i64 81) #3
  store i8* %12, i8** %5, align 8
  %13 = load i8*, i8** %5, align 8
  %14 = call i32 (i8*, ...) bitcast (i32 (...)* @gets to i32 (i8*, ...)*)(i8* %13)
  store i32 1, i32* %4, align 4
  %15 = load i8*, i8** %5, align 8
  %16 = load i8, i8* %15, align 1
  %17 = sext i8 %16 to i32
  %18 = icmp ne i32 %17, 95
  br i1 %18, label %19, label %40

19:                                               ; preds = %11
  %20 = load i8*, i8** %5, align 8
  %21 = load i8, i8* %20, align 1
  %22 = sext i8 %21 to i32
  %23 = icmp slt i32 %22, 65
  br i1 %23, label %29, label %24

24:                                               ; preds = %19
  %25 = load i8*, i8** %5, align 8
  %26 = load i8, i8* %25, align 1
  %27 = sext i8 %26 to i32
  %28 = icmp sgt i32 %27, 90
  br i1 %28, label %29, label %40

29:                                               ; preds = %24, %19
  %30 = load i8*, i8** %5, align 8
  %31 = load i8, i8* %30, align 1
  %32 = sext i8 %31 to i32
  %33 = icmp slt i32 %32, 97
  br i1 %33, label %39, label %34

34:                                               ; preds = %29
  %35 = load i8*, i8** %5, align 8
  %36 = load i8, i8* %35, align 1
  %37 = sext i8 %36 to i32
  %38 = icmp sgt i32 %37, 122
  br i1 %38, label %39, label %40

39:                                               ; preds = %34, %29
  store i32 0, i32* %4, align 4
  br label %40

40:                                               ; preds = %39, %34, %24, %11
  store i32 1, i32* %3, align 4
  br label %41

41:                                               ; preds = %107, %40
  %42 = load i8*, i8** %5, align 8
  %43 = load i32, i32* %3, align 4
  %44 = sext i32 %43 to i64
  %45 = getelementptr inbounds i8, i8* %42, i64 %44
  %46 = load i8, i8* %45, align 1
  %47 = sext i8 %46 to i32
  %48 = icmp ne i32 %47, 0
  br i1 %48, label %49, label %110

49:                                               ; preds = %41
  %50 = load i8*, i8** %5, align 8
  %51 = load i32, i32* %3, align 4
  %52 = sext i32 %51 to i64
  %53 = getelementptr inbounds i8, i8* %50, i64 %52
  %54 = load i8, i8* %53, align 1
  %55 = sext i8 %54 to i32
  %56 = icmp ne i32 %55, 95
  br i1 %56, label %57, label %106

57:                                               ; preds = %49
  %58 = load i8*, i8** %5, align 8
  %59 = load i32, i32* %3, align 4
  %60 = sext i32 %59 to i64
  %61 = getelementptr inbounds i8, i8* %58, i64 %60
  %62 = load i8, i8* %61, align 1
  %63 = sext i8 %62 to i32
  %64 = icmp slt i32 %63, 65
  br i1 %64, label %73, label %65

65:                                               ; preds = %57
  %66 = load i8*, i8** %5, align 8
  %67 = load i32, i32* %3, align 4
  %68 = sext i32 %67 to i64
  %69 = getelementptr inbounds i8, i8* %66, i64 %68
  %70 = load i8, i8* %69, align 1
  %71 = sext i8 %70 to i32
  %72 = icmp sgt i32 %71, 90
  br i1 %72, label %73, label %106

73:                                               ; preds = %65, %57
  %74 = load i8*, i8** %5, align 8
  %75 = load i32, i32* %3, align 4
  %76 = sext i32 %75 to i64
  %77 = getelementptr inbounds i8, i8* %74, i64 %76
  %78 = load i8, i8* %77, align 1
  %79 = sext i8 %78 to i32
  %80 = icmp slt i32 %79, 97
  br i1 %80, label %89, label %81

81:                                               ; preds = %73
  %82 = load i8*, i8** %5, align 8
  %83 = load i32, i32* %3, align 4
  %84 = sext i32 %83 to i64
  %85 = getelementptr inbounds i8, i8* %82, i64 %84
  %86 = load i8, i8* %85, align 1
  %87 = sext i8 %86 to i32
  %88 = icmp sgt i32 %87, 122
  br i1 %88, label %89, label %106

89:                                               ; preds = %81, %73
  %90 = load i8*, i8** %5, align 8
  %91 = load i32, i32* %3, align 4
  %92 = sext i32 %91 to i64
  %93 = getelementptr inbounds i8, i8* %90, i64 %92
  %94 = load i8, i8* %93, align 1
  %95 = sext i8 %94 to i32
  %96 = icmp slt i32 %95, 48
  br i1 %96, label %105, label %97

97:                                               ; preds = %89
  %98 = load i8*, i8** %5, align 8
  %99 = load i32, i32* %3, align 4
  %100 = sext i32 %99 to i64
  %101 = getelementptr inbounds i8, i8* %98, i64 %100
  %102 = load i8, i8* %101, align 1
  %103 = sext i8 %102 to i32
  %104 = icmp sgt i32 %103, 57
  br i1 %104, label %105, label %106

105:                                              ; preds = %97, %89
  store i32 0, i32* %4, align 4
  br label %106

106:                                              ; preds = %105, %97, %81, %65, %49
  br label %107

107:                                              ; preds = %106
  %108 = load i32, i32* %3, align 4
  %109 = add nsw i32 %108, 1
  store i32 %109, i32* %3, align 4
  br label %41

110:                                              ; preds = %41
  %111 = load i32, i32* %4, align 4
  %112 = call i32 (i8*, ...) @printf(i8* getelementptr inbounds ([4 x i8], [4 x i8]* @.str, i64 0, i64 0), i32 %111)
  %113 = load i8*, i8** %5, align 8
  call void @free(i8* %113) #3
  br label %114

114:                                              ; preds = %110
  %115 = load i32, i32* %2, align 4
  %116 = add nsw i32 %115, 1
  store i32 %116, i32* %2, align 4
  br label %7

117:                                              ; preds = %7
  ret void
}

declare dso_local i32 @__isoc99_scanf(i8*, ...) #1

; Function Attrs: nounwind
declare dso_local noalias i8* @malloc(i64) #2

declare dso_local i32 @gets(...) #1

declare dso_local i32 @printf(i8*, ...) #1

; Function Attrs: nounwind
declare dso_local void @free(i8*) #2


!llvm.module.flags = !{!0}
!llvm.ident = !{!1}

!0 = !{i32 1, !"wchar_size", i32 4}
!1 = !{!"clang version 10.0.0-4ubuntu1 "}
