; ModuleID = 'source-C-CXX/57/68.c'
source_filename = "source-C-CXX/57/68.c"
target datalayout = "e-m:e-p270:32:32-p271:32:32-p272:64:64-i64:64-f80:128-n8:16:32:64-S128"
target triple = "x86_64-pc-linux-gnu"

@.str = private unnamed_addr constant [4 x i8] c"%d\0A\00", align 1

; Function Attrs: nounwind sspstrong uwtable
define dso_local void @main() local_unnamed_addr #0 {
  %1 = alloca i32, align 4
  %2 = bitcast i32* %1 to i8*
  call void @llvm.lifetime.start.p0i8(i64 4, i8* nonnull %2) #6
  %3 = call i32 (i8*, ...) @__isoc99_scanf(i8* getelementptr inbounds ([4 x i8], [4 x i8]* @.str, i64 0, i64 0), i32* nonnull %1)
  %4 = load i32, i32* %1, align 4, !tbaa !5
  %5 = icmp sgt i32 %4, 0
  br i1 %5, label %6, label %40

6:                                                ; preds = %0, %35
  %7 = phi i32 [ %37, %35 ], [ 0, %0 ]
  %8 = call noalias align 16 dereferenceable_or_null(81) i8* @malloc(i64 81) #6
  %9 = call i32 (i8*, ...) bitcast (i32 (...)* @gets to i32 (i8*, ...)*)(i8* %8) #6
  %10 = load i8, i8* %8, align 16, !tbaa !9
  %11 = icmp eq i8 %10, 95
  %12 = and i8 %10, -33
  %13 = add i8 %12, -65
  %14 = icmp ult i8 %13, 26
  %15 = or i1 %14, %11
  %16 = zext i1 %15 to i32
  br label %17

17:                                               ; preds = %32, %6
  %18 = phi i64 [ %34, %32 ], [ 1, %6 ]
  %19 = phi i32 [ %33, %32 ], [ %16, %6 ]
  %20 = getelementptr inbounds i8, i8* %8, i64 %18
  %21 = load i8, i8* %20, align 1, !tbaa !9
  switch i8 %21, label %22 [
    i8 0, label %35
    i8 95, label %32
  ]

22:                                               ; preds = %17
  %23 = add i8 %21, -65
  %24 = icmp ugt i8 %23, 25
  %25 = add i8 %21, -97
  %26 = icmp ugt i8 %25, 25
  %27 = and i1 %24, %26
  br i1 %27, label %28, label %32

28:                                               ; preds = %22
  %29 = add i8 %21, -48
  %30 = icmp ugt i8 %29, 9
  %31 = select i1 %30, i32 0, i32 %19
  br label %32

32:                                               ; preds = %28, %22, %17
  %33 = phi i32 [ %19, %17 ], [ %19, %22 ], [ %31, %28 ]
  %34 = add nuw i64 %18, 1
  br label %17, !llvm.loop !10

35:                                               ; preds = %17
  %36 = call i32 (i8*, ...) @printf(i8* nonnull dereferenceable(1) getelementptr inbounds ([4 x i8], [4 x i8]* @.str, i64 0, i64 0), i32 %19)
  call void @free(i8* nonnull %8) #6
  %37 = add nuw nsw i32 %7, 1
  %38 = load i32, i32* %1, align 4, !tbaa !5
  %39 = icmp slt i32 %37, %38
  br i1 %39, label %6, label %40, !llvm.loop !12

40:                                               ; preds = %35, %0
  call void @llvm.lifetime.end.p0i8(i64 4, i8* nonnull %2) #6
  ret void
}

; Function Attrs: argmemonly mustprogress nofree nosync nounwind willreturn
declare void @llvm.lifetime.start.p0i8(i64 immarg, i8* nocapture) #1

; Function Attrs: nofree nounwind
declare noundef i32 @__isoc99_scanf(i8* nocapture noundef readonly, ...) local_unnamed_addr #2

; Function Attrs: inaccessiblememonly mustprogress nofree nounwind willreturn
declare noalias noundef align 16 i8* @malloc(i64 noundef) local_unnamed_addr #3

declare i32 @gets(...) local_unnamed_addr #4

; Function Attrs: nofree nounwind
declare noundef i32 @printf(i8* nocapture noundef readonly, ...) local_unnamed_addr #2

; Function Attrs: inaccessiblemem_or_argmemonly mustprogress nounwind willreturn
declare void @free(i8* nocapture noundef) local_unnamed_addr #5

; Function Attrs: argmemonly mustprogress nofree nosync nounwind willreturn
declare void @llvm.lifetime.end.p0i8(i64 immarg, i8* nocapture) #1


!llvm.module.flags = !{!0, !1, !2, !3}
!llvm.ident = !{!4}

!0 = !{i32 1, !"wchar_size", i32 4}
!1 = !{i32 7, !"PIC Level", i32 2}
!2 = !{i32 7, !"PIE Level", i32 2}
!3 = !{i32 7, !"uwtable", i32 1}
!4 = !{!"clang version 13.0.0"}
!5 = !{!6, !6, i64 0}
!6 = !{!"int", !7, i64 0}
!7 = !{!"omnipotent char", !8, i64 0}
!8 = !{!"Simple C/C++ TBAA"}
!9 = !{!7, !7, i64 0}
!10 = distinct !{!10, !11}
!11 = !{!"llvm.loop.mustprogress"}
!12 = distinct !{!12, !11}
